; ModuleID = '33/2706.c'
source_filename = "33/2706.c"
target datalayout = "e-m:e-p270:32:32-p271:32:32-p272:64:64-i64:64-f80:128-n8:16:32:64-S128"
target triple = "x86_64-pc-linux-gnu"

@.str = private unnamed_addr constant [3 x i8] c"%d\00", align 1
@.str.1 = private unnamed_addr constant [3 x i8] c"%s\00", align 1
@.str.2 = private unnamed_addr constant [2 x i8] c"T\00", align 1
@.str.3 = private unnamed_addr constant [2 x i8] c"A\00", align 1
@.str.4 = private unnamed_addr constant [2 x i8] c"C\00", align 1
@.str.5 = private unnamed_addr constant [2 x i8] c"G\00", align 1
@.str.6 = private unnamed_addr constant [2 x i8] c"\0A\00", align 1

; Function Attrs: noinline nounwind uwtable
define dso_local i32 @main() #0 {
  %1 = alloca i32, align 4
  %2 = alloca i32, align 4
  %3 = alloca [1000 x i32], align 16
  %4 = alloca [1000 x [256 x i8]], align 16
  %5 = alloca i32, align 4
  %6 = alloca i32, align 4
  store i32 0, i32* %1, align 4
  %7 = call i32 (i8*, ...) @__isoc99_scanf(i8* getelementptr inbounds ([3 x i8], [3 x i8]* @.str, i64 0, i64 0), i32* %2)
  store i32 0, i32* %5, align 4
  br label %8

8:                                                ; preds = %27, %0
  %9 = load i32, i32* %5, align 4
  %10 = load i32, i32* %2, align 4
  %11 = icmp slt i32 %9, %10
  br i1 %11, label %12, label %30

12:                                               ; preds = %8
  %13 = load i32, i32* %5, align 4
  %14 = sext i32 %13 to i64
  %15 = getelementptr inbounds [1000 x [256 x i8]], [1000 x [256 x i8]]* %4, i64 0, i64 %14
  %16 = getelementptr inbounds [256 x i8], [256 x i8]* %15, i64 0, i64 0
  %17 = call i32 (i8*, ...) @__isoc99_scanf(i8* getelementptr inbounds ([3 x i8], [3 x i8]* @.str.1, i64 0, i64 0), i8* %16)
  %18 = load i32, i32* %5, align 4
  %19 = sext i32 %18 to i64
  %20 = getelementptr inbounds [1000 x [256 x i8]], [1000 x [256 x i8]]* %4, i64 0, i64 %19
  %21 = getelementptr inbounds [256 x i8], [256 x i8]* %20, i64 0, i64 0
  %22 = call i64 @strlen(i8* %21) #3
  %23 = trunc i64 %22 to i32
  %24 = load i32, i32* %5, align 4
  %25 = sext i32 %24 to i64
  %26 = getelementptr inbounds [1000 x i32], [1000 x i32]* %3, i64 0, i64 %25
  store i32 %23, i32* %26, align 4
  br label %27

27:                                               ; preds = %12
  %28 = load i32, i32* %5, align 4
  %29 = add nsw i32 %28, 1
  store i32 %29, i32* %5, align 4
  br label %8

30:                                               ; preds = %8
  store i32 0, i32* %5, align 4
  br label %31

31:                                               ; preds = %97, %30
  %32 = load i32, i32* %5, align 4
  %33 = load i32, i32* %2, align 4
  %34 = icmp slt i32 %32, %33
  br i1 %34, label %35, label %100

35:                                               ; preds = %31
  store i32 0, i32* %6, align 4
  br label %36

36:                                               ; preds = %92, %35
  %37 = load i32, i32* %6, align 4
  %38 = load i32, i32* %5, align 4
  %39 = sext i32 %38 to i64
  %40 = getelementptr inbounds [1000 x i32], [1000 x i32]* %3, i64 0, i64 %39
  %41 = load i32, i32* %40, align 4
  %42 = icmp slt i32 %37, %41
  br i1 %42, label %43, label %95

43:                                               ; preds = %36
  %44 = load i32, i32* %5, align 4
  %45 = sext i32 %44 to i64
  %46 = getelementptr inbounds [1000 x [256 x i8]], [1000 x [256 x i8]]* %4, i64 0, i64 %45
  %47 = load i32, i32* %6, align 4
  %48 = sext i32 %47 to i64
  %49 = getelementptr inbounds [256 x i8], [256 x i8]* %46, i64 0, i64 %48
  %50 = load i8, i8* %49, align 1
  %51 = sext i8 %50 to i32
  %52 = icmp eq i32 %51, 65
  br i1 %52, label %53, label %55

53:                                               ; preds = %43
  %54 = call i32 (i8*, ...) @printf(i8* getelementptr inbounds ([2 x i8], [2 x i8]* @.str.2, i64 0, i64 0))
  br label %55

55:                                               ; preds = %53, %43
  %56 = load i32, i32* %5, align 4
  %57 = sext i32 %56 to i64
  %58 = getelementptr inbounds [1000 x [256 x i8]], [1000 x [256 x i8]]* %4, i64 0, i64 %57
  %59 = load i32, i32* %6, align 4
  %60 = sext i32 %59 to i64
  %61 = getelementptr inbounds [256 x i8], [256 x i8]* %58, i64 0, i64 %60
  %62 = load i8, i8* %61, align 1
  %63 = sext i8 %62 to i32
  %64 = icmp eq i32 %63, 84
  br i1 %64, label %65, label %67

65:                                               ; preds = %55
  %66 = call i32 (i8*, ...) @printf(i8* getelementptr inbounds ([2 x i8], [2 x i8]* @.str.3, i64 0, i64 0))
  br label %67

67:                                               ; preds = %65, %55
  %68 = load i32, i32* %5, align 4
  %69 = sext i32 %68 to i64
  %70 = getelementptr inbounds [1000 x [256 x i8]], [1000 x [256 x i8]]* %4, i64 0, i64 %69
  %71 = load i32, i32* %6, align 4
  %72 = sext i32 %71 to i64
  %73 = getelementptr inbounds [256 x i8], [256 x i8]* %70, i64 0, i64 %72
  %74 = load i8, i8* %73, align 1
  %75 = sext i8 %74 to i32
  %76 = icmp eq i32 %75, 71
  br i1 %76, label %77, label %79

77:                                               ; preds = %67
  %78 = call i32 (i8*, ...) @printf(i8* getelementptr inbounds ([2 x i8], [2 x i8]* @.str.4, i64 0, i64 0))
  br label %79

79:                                               ; preds = %77, %67
  %80 = load i32, i32* %5, align 4
  %81 = sext i32 %80 to i64
  %82 = getelementptr inbounds [1000 x [256 x i8]], [1000 x [256 x i8]]* %4, i64 0, i64 %81
  %83 = load i32, i32* %6, align 4
  %84 = sext i32 %83 to i64
  %85 = getelementptr inbounds [256 x i8], [256 x i8]* %82, i64 0, i64 %84
  %86 = load i8, i8* %85, align 1
  %87 = sext i8 %86 to i32
  %88 = icmp eq i32 %87, 67
  br i1 %88, label %89, label %91

89:                                               ; preds = %79
  %90 = call i32 (i8*, ...) @printf(i8* getelementptr inbounds ([2 x i8], [2 x i8]* @.str.5, i64 0, i64 0))
  br label %91

91:                                               ; preds = %89, %79
  br label %92

92:                                               ; preds = %91
  %93 = load i32, i32* %6, align 4
  %94 = add nsw i32 %93, 1
  store i32 %94, i32* %6, align 4
  br label %36

95:                                               ; preds = %36
  %96 = call i32 (i8*, ...) @printf(i8* getelementptr inbounds ([2 x i8], [2 x i8]* @.str.6, i64 0, i64 0))
  br label %97

97:                                               ; preds = %95
  %98 = load i32, i32* %5, align 4
  %99 = add nsw i32 %98, 1
  store i32 %99, i32* %5, align 4
  br label %31

100:                                              ; preds = %31
  ret i32 0
}

declare dso_local i32 @__isoc99_scanf(i8*, ...) #1

; Function Attrs: nounwind readonly
declare dso_local i64 @strlen(i8*) #2

declare dso_local i32 @printf(i8*, ...) #1


!llvm.module.flags = !{!0}
!llvm.ident = !{!1}

!0 = !{i32 1, !"wchar_size", i32 4}
!1 = !{!"clang version 10.0.0-4ubuntu1 "}
